; ModuleID = 'source-C-CXX/52/1710.c'
source_filename = "source-C-CXX/52/1710.c"
target datalayout = "e-m:e-p270:32:32-p271:32:32-p272:64:64-i64:64-f80:128-n8:16:32:64-S128"
target triple = "x86_64-pc-linux-gnu"

@.str = private unnamed_addr constant [3 x i8] c"%d\00", align 1
@.str.1 = private unnamed_addr constant [4 x i8] c"%d,\00", align 1

; Function Attrs: nofree nounwind sspstrong uwtable
define dso_local i32 @main() local_unnamed_addr #0 {
  %1 = alloca i32, align 4
  %2 = alloca i32, align 4
  %3 = alloca [300 x i32], align 16
  %4 = bitcast i32* %1 to i8*
  call void @llvm.lifetime.start.p0i8(i64 4, i8* nonnull %4) #4
  %5 = bitcast i32* %2 to i8*
  call void @llvm.lifetime.start.p0i8(i64 4, i8* nonnull %5) #4
  %6 = bitcast [300 x i32]* %3 to i8*
  call void @llvm.lifetime.start.p0i8(i64 1200, i8* nonnull %6) #4
  call void @llvm.memset.p0i8.i64(i8* noundef nonnull align 16 dereferenceable(1200) %6, i8 0, i64 1200, i1 false)
  %7 = call i32 (i8*, ...) @__isoc99_scanf(i8* getelementptr inbounds ([3 x i8], [3 x i8]* @.str, i64 0, i64 0), i32* nonnull %1)
  %8 = load i32, i32* %1, align 4, !tbaa !5
  %9 = icmp eq i32 %8, 0
  br i1 %9, label %47, label %15

10:                                               ; preds = %36
  %11 = add i32 %37, -1
  %12 = icmp sgt i32 %37, 1
  br i1 %12, label %13, label %47

13:                                               ; preds = %10
  %14 = zext i32 %11 to i64
  br label %40

15:                                               ; preds = %0, %36
  %16 = phi i32 [ %38, %36 ], [ %8, %0 ]
  %17 = phi i32 [ %37, %36 ], [ 0, %0 ]
  %18 = add nsw i32 %16, -1
  store i32 %18, i32* %1, align 4, !tbaa !5
  %19 = call i32 (i8*, ...) @__isoc99_scanf(i8* getelementptr inbounds ([3 x i8], [3 x i8]* @.str, i64 0, i64 0), i32* nonnull %2)
  %20 = load i32, i32* %2, align 4
  %21 = icmp sgt i32 %17, 0
  br i1 %21, label %22, label %32

22:                                               ; preds = %15
  %23 = zext i32 %17 to i64
  br label %26

24:                                               ; preds = %26
  %25 = icmp eq i64 %31, %23
  br i1 %25, label %32, label %26, !llvm.loop !9

26:                                               ; preds = %22, %24
  %27 = phi i64 [ 0, %22 ], [ %31, %24 ]
  %28 = getelementptr inbounds [300 x i32], [300 x i32]* %3, i64 0, i64 %27
  %29 = load i32, i32* %28, align 4, !tbaa !5
  %30 = icmp eq i32 %20, %29
  %31 = add nuw nsw i64 %27, 1
  br i1 %30, label %36, label %24

32:                                               ; preds = %24, %15
  %33 = sext i32 %17 to i64
  %34 = getelementptr inbounds [300 x i32], [300 x i32]* %3, i64 0, i64 %33
  store i32 %20, i32* %34, align 4, !tbaa !5
  %35 = add nsw i32 %17, 1
  br label %36

36:                                               ; preds = %26, %32
  %37 = phi i32 [ %35, %32 ], [ %17, %26 ]
  %38 = load i32, i32* %1, align 4, !tbaa !5
  %39 = icmp eq i32 %38, 0
  br i1 %39, label %10, label %15, !llvm.loop !11

40:                                               ; preds = %13, %40
  %41 = phi i64 [ 0, %13 ], [ %45, %40 ]
  %42 = getelementptr inbounds [300 x i32], [300 x i32]* %3, i64 0, i64 %41
  %43 = load i32, i32* %42, align 4, !tbaa !5
  %44 = call i32 (i8*, ...) @printf(i8* nonnull dereferenceable(1) getelementptr inbounds ([4 x i8], [4 x i8]* @.str.1, i64 0, i64 0), i32 %43)
  %45 = add nuw nsw i64 %41, 1
  %46 = icmp eq i64 %45, %14
  br i1 %46, label %47, label %40, !llvm.loop !12

47:                                               ; preds = %40, %0, %10
  %48 = phi i32 [ %11, %10 ], [ -1, %0 ], [ %11, %40 ]
  %49 = sext i32 %48 to i64
  %50 = getelementptr inbounds [300 x i32], [300 x i32]* %3, i64 0, i64 %49
  %51 = load i32, i32* %50, align 4, !tbaa !5
  %52 = call i32 (i8*, ...) @printf(i8* nonnull dereferenceable(1) getelementptr inbounds ([3 x i8], [3 x i8]* @.str, i64 0, i64 0), i32 %51)
  call void @llvm.lifetime.end.p0i8(i64 1200, i8* nonnull %6) #4
  call void @llvm.lifetime.end.p0i8(i64 4, i8* nonnull %5) #4
  call void @llvm.lifetime.end.p0i8(i64 4, i8* nonnull %4) #4
  ret i32 0
}

; Function Attrs: argmemonly mustprogress nofree nosync nounwind willreturn
declare void @llvm.lifetime.start.p0i8(i64 immarg, i8* nocapture) #1

; Function Attrs: argmemonly mustprogress nofree nounwind willreturn writeonly
declare void @llvm.memset.p0i8.i64(i8* nocapture writeonly, i8, i64, i1 immarg) #2

; Function Attrs: nofree nounwind
declare noundef i32 @__isoc99_scanf(i8* nocapture noundef readonly, ...) local_unnamed_addr #3

; Function Attrs: nofree nounwind
declare noundef i32 @printf(i8* nocapture noundef readonly, ...) local_unnamed_addr #3

; Function Attrs: argmemonly mustprogress nofree nosync nounwind willreturn
declare void @llvm.lifetime.end.p0i8(i64 immarg, i8* nocapture) #1


!llvm.module.flags = !{!0, !1, !2, !3}
!llvm.ident = !{!4}

!0 = !{i32 1, !"wchar_size", i32 4}
!1 = !{i32 7, !"PIC Level", i32 2}
!2 = !{i32 7, !"PIE Level", i32 2}
!3 = !{i32 7, !"uwtable", i32 1}
!4 = !{!"clang version 13.0.0"}
!5 = !{!6, !6, i64 0}
!6 = !{!"int", !7, i64 0}
!7 = !{!"omnipotent char", !8, i64 0}
!8 = !{!"Simple C/C++ TBAA"}
!9 = distinct !{!9, !10}
!10 = !{!"llvm.loop.mustprogress"}
!11 = distinct !{!11, !10}
!12 = distinct !{!12, !10}
